; Function Attrs: mustprogress uwtable
define dso_local noundef zeroext i1 @_ZN4absl15BlockingCounter14DecrementCountEv(ptr noundef nonnull align 8 dereferenceable(17) %0) local_unnamed_addr #0 align 2 personality ptr @__gxx_personality_v0 {
  %2 = getelementptr inbounds nuw i8, ptr %0, i64 8
  %3 = atomicrmw sub ptr %2, i32 1 acq_rel, align 4
  %4 = icmp slt i32 %3, 1
  br i1 %4, label %5, label %6, !prof !19

5:                                                ; preds = %1
  tail call void (i32, ptr, i32, ptr, ...) @_ZN4absl16raw_log_internal6RawLogENS_11LogSeverityEPKciS3_z(i32 noundef 3, ptr noundef nonnull getelementptr inbounds nuw (i8, ptr @.str, i64 120), i32 noundef 42, ptr noundef nonnull @.str.1, ptr noundef nonnull @.str.4, ptr noundef nonnull @.str.5)
  unreachable

6:                                                ; preds = %1
  %7 = icmp eq i32 %3, 1
  br i1 %7, label %8, label %_ZN4absl9MutexLockD2Ev.exit

8:                                                ; preds = %6
  tail call void @AbslInternalTraceSignal(ptr noundef nonnull %0, i32 noundef 1)
  tail call void @_ZN4absl5Mutex4LockEv(ptr noundef nonnull align 8 dereferenceable(8) %0)
  %9 = getelementptr inbounds nuw i8, ptr %0, i64 16
  store i8 1, ptr %9, align 8, !tbaa !18
  invoke void @_ZN4absl5Mutex6UnlockEv(ptr noundef nonnull align 8 dereferenceable(8) %0)
          to label %_ZN4absl9MutexLockD2Ev.exit unwind label %10

10:                                               ; preds = %8
  %11 = landingpad { ptr, i32 }
          catch ptr null
  %12 = extractvalue { ptr, i32 } %11, 0
  tail call void @__clang_call_terminate(ptr %12) #6
  unreachable

_ZN4absl9MutexLockD2Ev.exit:                      ; preds = %8, %6
  ret i1 %7
}